target datalayout = "e-m:e-p270:32:32-p271:32:32-p272:64:64-i64:64-i128:128-f80:128-n8:16:32:64-S128"
target triple = "x86_64-pc-linux-gnu"

%struct.jv = type { i8, i8, i16, i32, %union.anon }
%union.anon = type { ptr }
%struct.jv_refcnt = type { i32 }
%struct.jvp_array = type { %struct.jv_refcnt, i32, i32, [0 x %struct.jv] }

@JV_INVALID = dso_local constant %struct.jv zeroinitializer, align 8

; Function Attrs: nounwind uwtable
define internal i32 @jvp_array_offset(i64 %0, ptr %1) #0 {
  %3 = alloca %struct.jv, align 8
  %4 = getelementptr inbounds nuw { i64, ptr }, ptr %3, i32 0, i32 0
  store i64 %0, ptr %4, align 8
  %5 = getelementptr inbounds nuw { i64, ptr }, ptr %3, i32 0, i32 1
  store ptr %1, ptr %5, align 8
  %6 = getelementptr inbounds nuw %struct.jv, ptr %3, i32 0, i32 2
  %7 = load i16, ptr %6, align 2, !tbaa !18
  %8 = zext i16 %7 to i32
  ret i32 %8
}

; Function Attrs: nounwind uwtable
define internal ptr @jvp_array_ptr(i64 %0, ptr %1) #0 {
  %3 = alloca %struct.jv, align 8
  %4 = getelementptr inbounds nuw { i64, ptr }, ptr %3, i32 0, i32 0
  store i64 %0, ptr %4, align 8
  %5 = getelementptr inbounds nuw { i64, ptr }, ptr %3, i32 0, i32 1
  store ptr %1, ptr %5, align 8
  %6 = getelementptr inbounds nuw %struct.jv, ptr %3, i32 0, i32 4
  %7 = load ptr, ptr %6, align 8, !tbaa !12
  ret ptr %7
}

; Function Attrs: nounwind uwtable
define dso_local { i64, ptr } @jv_invalid() #0 {
  %1 = alloca %struct.jv, align 8
  call void @llvm.memcpy.p0.p0.i64(ptr align 8 %1, ptr align 8 @JV_INVALID, i64 16, i1 false), !tbaa.struct !11
  %2 = load { i64, ptr }, ptr %1, align 8
  ret { i64, ptr } %2
}

; Function Attrs: nounwind uwtable
define internal ptr @jvp_array_read(i64 %0, ptr %1, i32 noundef %2) #0 {
  %4 = alloca ptr, align 8
  %5 = alloca %struct.jv, align 8
  %6 = alloca i32, align 4
  %7 = alloca ptr, align 8
  %8 = getelementptr inbounds nuw { i64, ptr }, ptr %5, i32 0, i32 0
  store i64 %0, ptr %8, align 8
  %9 = getelementptr inbounds nuw { i64, ptr }, ptr %5, i32 0, i32 1
  store ptr %1, ptr %9, align 8
  store i32 %2, ptr %6, align 4, !tbaa !10
  %10 = load i32, ptr %6, align 4, !tbaa !10
  %11 = icmp sge i32 %10, 0
  br i1 %11, label %12, label %37

12:                                               ; preds = %3
  %13 = load i32, ptr %6, align 4, !tbaa !10
  %14 = getelementptr inbounds nuw { i64, ptr }, ptr %5, i32 0, i32 0
  %15 = load i64, ptr %14, align 8
  %16 = getelementptr inbounds nuw { i64, ptr }, ptr %5, i32 0, i32 1
  %17 = load ptr, ptr %16, align 8
  %18 = call i32 @jvp_array_length(i64 %15, ptr %17)
  %19 = icmp slt i32 %13, %18
  br i1 %19, label %20, label %37

20:                                               ; preds = %12
  call void @llvm.lifetime.start.p0(i64 8, ptr %7) #11
  %21 = getelementptr inbounds nuw { i64, ptr }, ptr %5, i32 0, i32 0
  %22 = load i64, ptr %21, align 8
  %23 = getelementptr inbounds nuw { i64, ptr }, ptr %5, i32 0, i32 1
  %24 = load ptr, ptr %23, align 8
  %25 = call ptr @jvp_array_ptr(i64 %22, ptr %24)
  store ptr %25, ptr %7, align 8, !tbaa !14
  %26 = load ptr, ptr %7, align 8, !tbaa !14
  %27 = getelementptr inbounds nuw %struct.jvp_array, ptr %26, i32 0, i32 3
  %28 = load i32, ptr %6, align 4, !tbaa !10
  %29 = getelementptr inbounds nuw { i64, ptr }, ptr %5, i32 0, i32 0
  %30 = load i64, ptr %29, align 8
  %31 = getelementptr inbounds nuw { i64, ptr }, ptr %5, i32 0, i32 1
  %32 = load ptr, ptr %31, align 8
  %33 = call i32 @jvp_array_offset(i64 %30, ptr %32)
  %34 = add nsw i32 %28, %33
  %35 = sext i32 %34 to i64
  %36 = getelementptr inbounds [0 x %struct.jv], ptr %27, i64 0, i64 %35
  store ptr %36, ptr %4, align 8
  call void @llvm.lifetime.end.p0(i64 8, ptr %7) #11
  br label %38

37:                                               ; preds = %12, %3
  store ptr null, ptr %4, align 8
  br label %38

38:                                               ; preds = %37, %20
  %39 = load ptr, ptr %4, align 8
  ret ptr %39
}

; Function Attrs: nounwind uwtable
define internal i32 @jvp_array_length(i64 %0, ptr %1) #0 {
  %3 = alloca %struct.jv, align 8
  %4 = getelementptr inbounds nuw { i64, ptr }, ptr %3, i32 0, i32 0
  store i64 %0, ptr %4, align 8
  %5 = getelementptr inbounds nuw { i64, ptr }, ptr %3, i32 0, i32 1
  store ptr %1, ptr %5, align 8
  %6 = getelementptr inbounds nuw %struct.jv, ptr %3, i32 0, i32 3
  %7 = load i32, ptr %6, align 4, !tbaa !19
  ret i32 %7
}

; Function Attrs: nounwind uwtable
define internal void @jvp_refcnt_inc(ptr noundef %0) #0 {
  %2 = alloca ptr, align 8
  store ptr %0, ptr %2, align 8, !tbaa !83
  %3 = load ptr, ptr %2, align 8, !tbaa !83
  %4 = getelementptr inbounds nuw %struct.jv_refcnt, ptr %3, i32 0, i32 0
  %5 = load i32, ptr %4, align 4, !tbaa !68
  %6 = add nsw i32 %5, 1
  store i32 %6, ptr %4, align 4, !tbaa !68
  ret void
}

; Function Attrs: nounwind uwtable
define dso_local { i64, ptr } @jv_array_append(i64 %0, ptr %1, i64 %2, ptr %3) #0 {
  %5 = alloca %struct.jv, align 8
  %6 = alloca %struct.jv, align 8
  %7 = alloca %struct.jv, align 8
  %8 = alloca %struct.jv, align 8
  %9 = getelementptr inbounds nuw { i64, ptr }, ptr %6, i32 0, i32 0
  store i64 %0, ptr %9, align 8
  %10 = getelementptr inbounds nuw { i64, ptr }, ptr %6, i32 0, i32 1
  store ptr %1, ptr %10, align 8
  %11 = getelementptr inbounds nuw { i64, ptr }, ptr %7, i32 0, i32 0
  store i64 %2, ptr %11, align 8
  %12 = getelementptr inbounds nuw { i64, ptr }, ptr %7, i32 0, i32 1
  store ptr %3, ptr %12, align 8
  %13 = getelementptr inbounds nuw { i64, ptr }, ptr %6, i32 0, i32 0
  %14 = load i64, ptr %13, align 8
  %15 = getelementptr inbounds nuw { i64, ptr }, ptr %6, i32 0, i32 1
  %16 = load ptr, ptr %15, align 8
  %17 = call { i64, ptr } @jv_copy(i64 %14, ptr %16)
  %18 = getelementptr inbounds nuw { i64, ptr }, ptr %8, i32 0, i32 0
  %19 = extractvalue { i64, ptr } %17, 0
  store i64 %19, ptr %18, align 8
  %20 = getelementptr inbounds nuw { i64, ptr }, ptr %8, i32 0, i32 1
  %21 = extractvalue { i64, ptr } %17, 1
  store ptr %21, ptr %20, align 8
  %22 = getelementptr inbounds nuw { i64, ptr }, ptr %8, i32 0, i32 0
  %23 = load i64, ptr %22, align 8
  %24 = getelementptr inbounds nuw { i64, ptr }, ptr %8, i32 0, i32 1
  %25 = load ptr, ptr %24, align 8
  %26 = call i32 @jv_array_length(i64 %23, ptr %25)
  %27 = getelementptr inbounds nuw { i64, ptr }, ptr %6, i32 0, i32 0
  %28 = load i64, ptr %27, align 8
  %29 = getelementptr inbounds nuw { i64, ptr }, ptr %6, i32 0, i32 1
  %30 = load ptr, ptr %29, align 8
  %31 = getelementptr inbounds nuw { i64, ptr }, ptr %7, i32 0, i32 0
  %32 = load i64, ptr %31, align 8
  %33 = getelementptr inbounds nuw { i64, ptr }, ptr %7, i32 0, i32 1
  %34 = load ptr, ptr %33, align 8
  %35 = call { i64, ptr } @jv_array_set(i64 %28, ptr %30, i32 noundef %26, i64 %32, ptr %34)
  %36 = getelementptr inbounds nuw { i64, ptr }, ptr %5, i32 0, i32 0
  %37 = extractvalue { i64, ptr } %35, 0
  store i64 %37, ptr %36, align 8
  %38 = getelementptr inbounds nuw { i64, ptr }, ptr %5, i32 0, i32 1
  %39 = extractvalue { i64, ptr } %35, 1
  store ptr %39, ptr %38, align 8
  %40 = load { i64, ptr }, ptr %5, align 8
  ret { i64, ptr } %40
}

; Function Attrs: nounwind uwtable
define dso_local { i64, ptr } @jv_array_get(i64 %0, ptr %1, i32 noundef %2) #0 {
  %4 = alloca %struct.jv, align 8
  %5 = alloca %struct.jv, align 8
  %6 = alloca i32, align 4
  %7 = alloca ptr, align 8
  %8 = alloca %struct.jv, align 8
  %9 = alloca %struct.jv, align 8
  %10 = getelementptr inbounds nuw { i64, ptr }, ptr %5, i32 0, i32 0
  store i64 %0, ptr %10, align 8
  %11 = getelementptr inbounds nuw { i64, ptr }, ptr %5, i32 0, i32 1
  store ptr %1, ptr %11, align 8
  store i32 %2, ptr %6, align 4, !tbaa !10
  call void @llvm.lifetime.start.p0(i64 8, ptr %7) #11
  %12 = load i32, ptr %6, align 4, !tbaa !10
  %13 = getelementptr inbounds nuw { i64, ptr }, ptr %5, i32 0, i32 0
  %14 = load i64, ptr %13, align 8
  %15 = getelementptr inbounds nuw { i64, ptr }, ptr %5, i32 0, i32 1
  %16 = load ptr, ptr %15, align 8
  %17 = call ptr @jvp_array_read(i64 %14, ptr %16, i32 noundef %12)
  store ptr %17, ptr %7, align 8, !tbaa !14
  %18 = load ptr, ptr %7, align 8, !tbaa !14
  %19 = icmp ne ptr %18, null
  br i1 %19, label %20, label %31

20:                                               ; preds = %3
  call void @llvm.lifetime.start.p0(i64 16, ptr %8) #11
  %21 = load ptr, ptr %7, align 8, !tbaa !14
  %22 = getelementptr inbounds nuw { i64, ptr }, ptr %21, i32 0, i32 0
  %23 = load i64, ptr %22, align 8
  %24 = getelementptr inbounds nuw { i64, ptr }, ptr %21, i32 0, i32 1
  %25 = load ptr, ptr %24, align 8
  %26 = call { i64, ptr } @jv_copy(i64 %23, ptr %25)
  %27 = getelementptr inbounds nuw { i64, ptr }, ptr %8, i32 0, i32 0
  %28 = extractvalue { i64, ptr } %26, 0
  store i64 %28, ptr %27, align 8
  %29 = getelementptr inbounds nuw { i64, ptr }, ptr %8, i32 0, i32 1
  %30 = extractvalue { i64, ptr } %26, 1
  store ptr %30, ptr %29, align 8
  call void @llvm.memcpy.p0.p0.i64(ptr align 8 %4, ptr align 8 %8, i64 16, i1 false), !tbaa.struct !11
  call void @llvm.lifetime.end.p0(i64 16, ptr %8) #11
  br label %37

31:                                               ; preds = %3
  call void @llvm.lifetime.start.p0(i64 16, ptr %9) #11
  %32 = call { i64, ptr } @jv_invalid()
  %33 = getelementptr inbounds nuw { i64, ptr }, ptr %9, i32 0, i32 0
  %34 = extractvalue { i64, ptr } %32, 0
  store i64 %34, ptr %33, align 8
  %35 = getelementptr inbounds nuw { i64, ptr }, ptr %9, i32 0, i32 1
  %36 = extractvalue { i64, ptr } %32, 1
  store ptr %36, ptr %35, align 8
  call void @llvm.memcpy.p0.p0.i64(ptr align 8 %4, ptr align 8 %9, i64 16, i1 false), !tbaa.struct !11
  call void @llvm.lifetime.end.p0(i64 16, ptr %9) #11
  br label %37

37:                                               ; preds = %31, %20
  %38 = getelementptr inbounds nuw { i64, ptr }, ptr %5, i32 0, i32 0
  %39 = load i64, ptr %38, align 8
  %40 = getelementptr inbounds nuw { i64, ptr }, ptr %5, i32 0, i32 1
  %41 = load ptr, ptr %40, align 8
  call void @jv_free(i64 %39, ptr %41)
  call void @llvm.lifetime.end.p0(i64 8, ptr %7) #11
  %42 = load { i64, ptr }, ptr %4, align 8
  ret { i64, ptr } %42
}

; Function Attrs: nounwind uwtable
define dso_local i32 @jv_array_length(i64 %0, ptr %1) #0 {
  %3 = alloca %struct.jv, align 8
  %4 = alloca i32, align 4
  %5 = getelementptr inbounds nuw { i64, ptr }, ptr %3, i32 0, i32 0
  store i64 %0, ptr %5, align 8
  %6 = getelementptr inbounds nuw { i64, ptr }, ptr %3, i32 0, i32 1
  store ptr %1, ptr %6, align 8
  call void @llvm.lifetime.start.p0(i64 4, ptr %4) #11
  %7 = getelementptr inbounds nuw { i64, ptr }, ptr %3, i32 0, i32 0
  %8 = load i64, ptr %7, align 8
  %9 = getelementptr inbounds nuw { i64, ptr }, ptr %3, i32 0, i32 1
  %10 = load ptr, ptr %9, align 8
  %11 = call i32 @jvp_array_length(i64 %8, ptr %10)
  store i32 %11, ptr %4, align 4, !tbaa !10
  %12 = getelementptr inbounds nuw { i64, ptr }, ptr %3, i32 0, i32 0
  %13 = load i64, ptr %12, align 8
  %14 = getelementptr inbounds nuw { i64, ptr }, ptr %3, i32 0, i32 1
  %15 = load ptr, ptr %14, align 8
  call void @jv_free(i64 %13, ptr %15)
  %16 = load i32, ptr %4, align 4, !tbaa !10
  call void @llvm.lifetime.end.p0(i64 4, ptr %4) #11
  ret i32 %16
}

; Function Attrs: nounwind uwtable
define dso_local { i64, ptr } @jv_copy(i64 %0, ptr %1) #0 {
  %3 = alloca %struct.jv, align 8
  %4 = alloca %struct.jv, align 8
  %5 = getelementptr inbounds nuw { i64, ptr }, ptr %4, i32 0, i32 0
  store i64 %0, ptr %5, align 8
  %6 = getelementptr inbounds nuw { i64, ptr }, ptr %4, i32 0, i32 1
  store ptr %1, ptr %6, align 8
  %7 = getelementptr inbounds nuw %struct.jv, ptr %4, i32 0, i32 0
  %8 = load i8, ptr %7, align 8, !tbaa !4
  %9 = zext i8 %8 to i32
  %10 = and i32 %9, 128
  %11 = icmp ne i32 %10, 0
  br i1 %11, label %12, label %15

12:                                               ; preds = %2
  %13 = getelementptr inbounds nuw %struct.jv, ptr %4, i32 0, i32 4
  %14 = load ptr, ptr %13, align 8, !tbaa !12
  call void @jvp_refcnt_inc(ptr noundef %14)
  br label %15

15:                                               ; preds = %12, %2
  call void @llvm.memcpy.p0.p0.i64(ptr align 8 %3, ptr align 8 %4, i64 16, i1 false), !tbaa.struct !11
  %16 = load { i64, ptr }, ptr %3, align 8
  ret { i64, ptr } %16
}

; Function Attrs: nounwind uwtable
define dso_local { i64, ptr } @jv_array_concat(i64 %0, ptr %1, i64 %2, ptr %3) #0 {
  %5 = alloca %struct.jv, align 8
  %6 = alloca %struct.jv, align 8
  %7 = alloca %struct.jv, align 8
  %8 = alloca i32, align 4
  %9 = alloca %struct.jv, align 8
  %10 = alloca i32, align 4
  %11 = alloca i32, align 4
  %12 = alloca i32, align 4
  %13 = alloca %struct.jv, align 8
  %14 = alloca %struct.jv, align 8
  %15 = alloca i1, align 1
  %16 = alloca %struct.jv, align 8
  %17 = alloca %struct.jv, align 8
  %18 = getelementptr inbounds nuw { i64, ptr }, ptr %6, i32 0, i32 0
  store i64 %0, ptr %18, align 8
  %19 = getelementptr inbounds nuw { i64, ptr }, ptr %6, i32 0, i32 1
  store ptr %1, ptr %19, align 8
  %20 = getelementptr inbounds nuw { i64, ptr }, ptr %7, i32 0, i32 0
  store i64 %2, ptr %20, align 8
  %21 = getelementptr inbounds nuw { i64, ptr }, ptr %7, i32 0, i32 1
  store ptr %3, ptr %21, align 8
  call void @llvm.lifetime.start.p0(i64 4, ptr %8) #11
  %22 = getelementptr inbounds nuw { i64, ptr }, ptr %7, i32 0, i32 0
  %23 = load i64, ptr %22, align 8
  %24 = getelementptr inbounds nuw { i64, ptr }, ptr %7, i32 0, i32 1
  %25 = load ptr, ptr %24, align 8
  %26 = call { i64, ptr } @jv_copy(i64 %23, ptr %25)
  %27 = getelementptr inbounds nuw { i64, ptr }, ptr %9, i32 0, i32 0
  %28 = extractvalue { i64, ptr } %26, 0
  store i64 %28, ptr %27, align 8
  %29 = getelementptr inbounds nuw { i64, ptr }, ptr %9, i32 0, i32 1
  %30 = extractvalue { i64, ptr } %26, 1
  store ptr %30, ptr %29, align 8
  %31 = getelementptr inbounds nuw { i64, ptr }, ptr %9, i32 0, i32 0
  %32 = load i64, ptr %31, align 8
  %33 = getelementptr inbounds nuw { i64, ptr }, ptr %9, i32 0, i32 1
  %34 = load ptr, ptr %33, align 8
  %35 = call i32 @jv_array_length(i64 %32, ptr %34)
  store i32 %35, ptr %8, align 4, !tbaa !10
  call void @llvm.lifetime.start.p0(i64 4, ptr %10) #11
  store i32 0, ptr %10, align 4, !tbaa !10
  call void @llvm.lifetime.start.p0(i64 4, ptr %11) #11
  store i32 1, ptr %11, align 4, !tbaa !10
  br label %36

36:                                               ; preds = %88, %4
  %37 = load i32, ptr %11, align 4, !tbaa !10
  %38 = icmp ne i32 %37, 0
  br i1 %38, label %40, label %39

39:                                               ; preds = %36
  store i32 2, ptr %12, align 4
  call void @llvm.lifetime.end.p0(i64 4, ptr %11) #11
  call void @llvm.lifetime.end.p0(i64 4, ptr %10) #11
  call void @llvm.lifetime.end.p0(i64 4, ptr %8) #11
  br label %89

40:                                               ; preds = %36
  call void @llvm.lifetime.start.p0(i64 16, ptr %13) #11
  br label %41

41:                                               ; preds = %84, %40
  %42 = load i32, ptr %10, align 4, !tbaa !10
  %43 = load i32, ptr %8, align 4, !tbaa !10
  %44 = icmp slt i32 %42, %43
  store i1 false, ptr %15, align 1
  br i1 %44, label %45, label %65

45:                                               ; preds = %41
  call void @llvm.lifetime.start.p0(i64 16, ptr %14) #11
  store i1 true, ptr %15, align 1
  %46 = getelementptr inbounds nuw { i64, ptr }, ptr %7, i32 0, i32 0
  %47 = load i64, ptr %46, align 8
  %48 = getelementptr inbounds nuw { i64, ptr }, ptr %7, i32 0, i32 1
  %49 = load ptr, ptr %48, align 8
  %50 = call { i64, ptr } @jv_copy(i64 %47, ptr %49)
  %51 = getelementptr inbounds nuw { i64, ptr }, ptr %16, i32 0, i32 0
  %52 = extractvalue { i64, ptr } %50, 0
  store i64 %52, ptr %51, align 8
  %53 = getelementptr inbounds nuw { i64, ptr }, ptr %16, i32 0, i32 1
  %54 = extractvalue { i64, ptr } %50, 1
  store ptr %54, ptr %53, align 8
  %55 = load i32, ptr %10, align 4, !tbaa !10
  %56 = getelementptr inbounds nuw { i64, ptr }, ptr %16, i32 0, i32 0
  %57 = load i64, ptr %56, align 8
  %58 = getelementptr inbounds nuw { i64, ptr }, ptr %16, i32 0, i32 1
  %59 = load ptr, ptr %58, align 8
  %60 = call { i64, ptr } @jv_array_get(i64 %57, ptr %59, i32 noundef %55)
  %61 = getelementptr inbounds nuw { i64, ptr }, ptr %14, i32 0, i32 0
  %62 = extractvalue { i64, ptr } %60, 0
  store i64 %62, ptr %61, align 8
  %63 = getelementptr inbounds nuw { i64, ptr }, ptr %14, i32 0, i32 1
  %64 = extractvalue { i64, ptr } %60, 1
  store ptr %64, ptr %63, align 8
  call void @llvm.memcpy.p0.p0.i64(ptr align 8 %13, ptr align 8 %14, i64 16, i1 false), !tbaa.struct !11
  call void @llvm.lifetime.end.p0(i64 16, ptr %14) #11
  br label %66

65:                                               ; preds = %41
  br label %66

66:                                               ; preds = %65, %45
  %67 = phi i32 [ 1, %45 ], [ 0, %65 ]
  %68 = icmp ne i32 %67, 0
  br i1 %68, label %70, label %69

69:                                               ; preds = %66
  store i32 5, ptr %12, align 4
  call void @llvm.lifetime.end.p0(i64 16, ptr %13) #11
  br label %87

70:                                               ; preds = %66
  call void @llvm.lifetime.start.p0(i64 16, ptr %17) #11
  %71 = getelementptr inbounds nuw { i64, ptr }, ptr %6, i32 0, i32 0
  %72 = load i64, ptr %71, align 8
  %73 = getelementptr inbounds nuw { i64, ptr }, ptr %6, i32 0, i32 1
  %74 = load ptr, ptr %73, align 8
  %75 = getelementptr inbounds nuw { i64, ptr }, ptr %13, i32 0, i32 0
  %76 = load i64, ptr %75, align 8
  %77 = getelementptr inbounds nuw { i64, ptr }, ptr %13, i32 0, i32 1
  %78 = load ptr, ptr %77, align 8
  %79 = call { i64, ptr } @jv_array_append(i64 %72, ptr %74, i64 %76, ptr %78)
  %80 = getelementptr inbounds nuw { i64, ptr }, ptr %17, i32 0, i32 0
  %81 = extractvalue { i64, ptr } %79, 0
  store i64 %81, ptr %80, align 8
  %82 = getelementptr inbounds nuw { i64, ptr }, ptr %17, i32 0, i32 1
  %83 = extractvalue { i64, ptr } %79, 1
  store ptr %83, ptr %82, align 8
  call void @llvm.memcpy.p0.p0.i64(ptr align 8 %6, ptr align 8 %17, i64 16, i1 false), !tbaa.struct !11
  call void @llvm.lifetime.end.p0(i64 16, ptr %17) #11
  br label %84

84:                                               ; preds = %70
  %85 = load i32, ptr %10, align 4, !tbaa !10
  %86 = add nsw i32 %85, 1
  store i32 %86, ptr %10, align 4, !tbaa !10
  br label %41, !llvm.loop !49

87:                                               ; preds = %69
  br label %88

88:                                               ; preds = %87
  store i32 0, ptr %11, align 4, !tbaa !10
  br label %36, !llvm.loop !50

89:                                               ; preds = %39
  %90 = getelementptr inbounds nuw { i64, ptr }, ptr %7, i32 0, i32 0
  %91 = load i64, ptr %90, align 8
  %92 = getelementptr inbounds nuw { i64, ptr }, ptr %7, i32 0, i32 1
  %93 = load ptr, ptr %92, align 8
  call void @jv_free(i64 %91, ptr %93)
  call void @llvm.memcpy.p0.p0.i64(ptr align 8 %5, ptr align 8 %6, i64 16, i1 false), !tbaa.struct !11
  %94 = load { i64, ptr }, ptr %5, align 8
  ret { i64, ptr } %94
}