; Function Attrs: nounwind uwtable
define dso_local { i64, ptr } @jv_array_concat(i64 %0, ptr %1, i64 %2, ptr %3) local_unnamed_addr #2 {
  %5 = and i64 %2, 128
  %.not.i = icmp eq i64 %5, 0
  br i1 %.not.i, label %.preheader.us, label %.preheader

.preheader.us:                                    ; preds = %4
  %.sroa.1.0.extract.shift.i.i61 = lshr i64 %2, 32
  %.sroa.1.0.extract.trunc.i.i62 = trunc nuw i64 %.sroa.1.0.extract.shift.i.i61 to i32
  tail call void @jv_free(i64 %2, ptr %3)
  %6 = getelementptr inbounds nuw i8, ptr %3, i64 16
  %.not2438.us = icmp sgt i32 %.sroa.1.0.extract.trunc.i.i62, 0
  br i1 %.not2438.us, label %jv_copy.exit28.us.us.preheader, label %.split.us

jv_copy.exit28.us.us.preheader:                   ; preds = %.preheader.us
  %7 = lshr i64 %2, 16
  %8 = and i64 %7, 65535
  br label %9

9:                                                ; preds = %jv_array_append.exit.us.us, %jv_copy.exit28.us.us.preheader
  %indvars.iv56 = phi i64 [ 0, %jv_copy.exit28.us.us.preheader ], [ %indvars.iv.next57, %jv_array_append.exit.us.us ]
  %.sroa.419.141.us.us = phi ptr [ %1, %jv_copy.exit28.us.us.preheader ], [ %26, %jv_array_append.exit.us.us ]
  %.sroa.018.140.us.us = phi i64 [ %0, %jv_copy.exit28.us.us.preheader ], [ %25, %jv_array_append.exit.us.us ]
  %10 = add nuw nsw i64 %indvars.iv56, %8
  %11 = getelementptr inbounds nuw [0 x %struct.jv], ptr %6, i64 0, i64 %10
  %12 = load i64, ptr %11, align 8
  %13 = getelementptr inbounds nuw i8, ptr %11, i64 8
  %14 = load ptr, ptr %13, align 8
  %15 = and i64 %12, 128
  %.not.i.i.us.us = icmp eq i64 %15, 0
  br i1 %.not.i.i.us.us, label %19, label %16

16:                                               ; preds = %9
  %17 = load i32, ptr %14, align 4, !tbaa !9
  %18 = add nsw i32 %17, 1
  store i32 %18, ptr %14, align 4, !tbaa !9
  br label %19

19:                                               ; preds = %16, %9
  tail call void @jv_free(i64 %2, ptr nonnull %3)
  %20 = and i64 %.sroa.018.140.us.us, 128
  %.not.i.i31.us.us = icmp eq i64 %20, 0
  br i1 %.not.i.i31.us.us, label %jv_array_append.exit.us.us, label %21

21:                                               ; preds = %19
  %22 = load i32, ptr %.sroa.419.141.us.us, align 4, !tbaa !9
  %23 = add nsw i32 %22, 1
  store i32 %23, ptr %.sroa.419.141.us.us, align 4, !tbaa !9
  br label %jv_array_append.exit.us.us

jv_array_append.exit.us.us:                       ; preds = %21, %19
  %.sroa.1.0.extract.shift.i.i.i32.us.us = lshr i64 %.sroa.018.140.us.us, 32
  %.sroa.1.0.extract.trunc.i.i.i33.us.us = trunc nuw i64 %.sroa.1.0.extract.shift.i.i.i32.us.us to i32
  tail call void @jv_free(i64 %.sroa.018.140.us.us, ptr %.sroa.419.141.us.us)
  %24 = tail call { i64, ptr } @jv_array_set(i64 %.sroa.018.140.us.us, ptr %.sroa.419.141.us.us, i32 noundef %.sroa.1.0.extract.trunc.i.i.i33.us.us, i64 %12, ptr %14)
  %25 = extractvalue { i64, ptr } %24, 0
  %26 = extractvalue { i64, ptr } %24, 1
  %indvars.iv.next57 = add nuw nsw i64 %indvars.iv56, 1
  %exitcond60.not = icmp eq i64 %indvars.iv.next57, %.sroa.1.0.extract.shift.i.i61
  br i1 %exitcond60.not, label %.split.us, label %9, !llvm.loop !40

.preheader:                                       ; preds = %4
  %27 = load i32, ptr %3, align 4, !tbaa !9
  %28 = add nsw i32 %27, 1
  store i32 %28, ptr %3, align 4, !tbaa !9
  %.sroa.1.0.extract.shift.i.i = lshr i64 %2, 32
  %.sroa.1.0.extract.trunc.i.i = trunc nuw i64 %.sroa.1.0.extract.shift.i.i to i32
  tail call void @jv_free(i64 %2, ptr nonnull %3)
  %29 = getelementptr inbounds nuw i8, ptr %3, i64 16
  %.not2438 = icmp sgt i32 %.sroa.1.0.extract.trunc.i.i, 0
  br i1 %.not2438, label %jv_copy.exit28.preheader, label %.split.us

jv_copy.exit28.preheader:                         ; preds = %.preheader
  %30 = lshr i64 %2, 16
  %31 = and i64 %30, 65535
  br label %32

.split.us:                                        ; preds = %jv_array_append.exit, %jv_array_append.exit.us.us, %.preheader, %.preheader.us
  %.us-phi49 = phi i64 [ %0, %.preheader.us ], [ %0, %.preheader ], [ %25, %jv_array_append.exit.us.us ], [ %50, %jv_array_append.exit ]
  %.us-phi50 = phi ptr [ %1, %.preheader.us ], [ %1, %.preheader ], [ %26, %jv_array_append.exit.us.us ], [ %51, %jv_array_append.exit ]
  tail call void @jv_free(i64 %2, ptr %3)
  %.fca.0.insert = insertvalue { i64, ptr } poison, i64 %.us-phi49, 0
  %.fca.1.insert = insertvalue { i64, ptr } %.fca.0.insert, ptr %.us-phi50, 1
  ret { i64, ptr } %.fca.1.insert

32:                                               ; preds = %jv_array_append.exit, %jv_copy.exit28.preheader
  %indvars.iv = phi i64 [ 0, %jv_copy.exit28.preheader ], [ %indvars.iv.next, %jv_array_append.exit ]
  %.sroa.419.141 = phi ptr [ %1, %jv_copy.exit28.preheader ], [ %51, %jv_array_append.exit ]
  %.sroa.018.140 = phi i64 [ %0, %jv_copy.exit28.preheader ], [ %50, %jv_array_append.exit ]
  %33 = load i32, ptr %3, align 4, !tbaa !9
  %34 = add nsw i32 %33, 1
  store i32 %34, ptr %3, align 4, !tbaa !9
  %35 = add nuw nsw i64 %indvars.iv, %31
  %36 = getelementptr inbounds nuw [0 x %struct.jv], ptr %29, i64 0, i64 %35
  %37 = load i64, ptr %36, align 8
  %38 = getelementptr inbounds nuw i8, ptr %36, i64 8
  %39 = load ptr, ptr %38, align 8
  %40 = and i64 %37, 128
  %.not.i.i = icmp eq i64 %40, 0
  br i1 %.not.i.i, label %44, label %41

41:                                               ; preds = %32
  %42 = load i32, ptr %39, align 4, !tbaa !9
  %43 = add nsw i32 %42, 1
  store i32 %43, ptr %39, align 4, !tbaa !9
  br label %44

44:                                               ; preds = %41, %32
  tail call void @jv_free(i64 %2, ptr nonnull %3)
  %45 = and i64 %.sroa.018.140, 128
  %.not.i.i31 = icmp eq i64 %45, 0
  br i1 %.not.i.i31, label %jv_array_append.exit, label %46

46:                                               ; preds = %44
  %47 = load i32, ptr %.sroa.419.141, align 4, !tbaa !9
  %48 = add nsw i32 %47, 1
  store i32 %48, ptr %.sroa.419.141, align 4, !tbaa !9
  br label %jv_array_append.exit

jv_array_append.exit:                             ; preds = %44, %46
  %.sroa.1.0.extract.shift.i.i.i32 = lshr i64 %.sroa.018.140, 32
  %.sroa.1.0.extract.trunc.i.i.i33 = trunc nuw i64 %.sroa.1.0.extract.shift.i.i.i32 to i32
  tail call void @jv_free(i64 %.sroa.018.140, ptr %.sroa.419.141)
  %49 = tail call { i64, ptr } @jv_array_set(i64 %.sroa.018.140, ptr %.sroa.419.141, i32 noundef %.sroa.1.0.extract.trunc.i.i.i33, i64 %37, ptr %39)
  %50 = extractvalue { i64, ptr } %49, 0
  %51 = extractvalue { i64, ptr } %49, 1
  %indvars.iv.next = add nuw nsw i64 %indvars.iv, 1
  %exitcond.not = icmp eq i64 %indvars.iv.next, %.sroa.1.0.extract.shift.i.i
  br i1 %exitcond.not, label %.split.us, label %32, !llvm.loop !40
}